target datalayout = "e-m:e-p270:32:32-p271:32:32-p272:64:64-i64:64-i128:128-f80:128-n8:16:32:64-S128"
target triple = "x86_64-pc-linux-gnu"

%struct.lua_State = type { %struct.GCRef, i8, i8, i8, i8, %struct.MRef, %struct.GCRef, ptr, ptr, %struct.MRef, %struct.MRef, %struct.GCRef, %struct.GCRef, ptr, i32 }
%struct.MRef = type { i64 }
%struct.GCRef = type { i64 }
%union.TValue = type { i64 }
%struct.global_State = type { ptr, ptr, %struct.GCState, %struct.GCstr, i8, i8, i8, i8, %struct.StrInternState, i32, %struct.GCRef, %struct.SBuf, %union.TValue, %union.TValue, %struct.Node, %union.TValue, %struct.GCupval, i32, i32, ptr, ptr, ptr, i32, i32, %struct.GCRef, %struct.MRef, %struct.MRef, %struct.PRNGState, [39 x %struct.GCRef] }
%struct.GCState = type { i64, i64, i8, i8, i8, i8, i32, %struct.GCRef, %struct.MRef, %struct.GCRef, %struct.GCRef, %struct.GCRef, %struct.GCRef, i64, i64, i32, i32, %struct.MRef }
%struct.GCstr = type { %struct.GCRef, i8, i8, i8, i8, i32, i32, i32 }
%struct.StrInternState = type { ptr, i32, i32, i32, i8, i8, i8, i8, i64 }
%struct.SBuf = type { ptr, ptr, ptr, %struct.MRef }
%struct.Node = type { %union.TValue, %union.TValue, %struct.MRef }
%struct.GCupval = type { %struct.GCRef, i8, i8, i8, i8, %union.anon, %struct.MRef, i32 }
%union.anon = type { %struct.anon.1 }
%struct.anon.1 = type { %struct.GCRef, %struct.GCRef }
%struct.PRNGState = type { [4 x i64] }

@.str.11 = private unnamed_addr constant [10 x i8] c"_VMEVENTS\00", align 1

; Function Attrs: nounwind uwtable
define internal i32 @lj_cf_jit_attach(ptr noundef %0) #0 {
  %2 = alloca ptr, align 8
  %3 = alloca ptr, align 8
  %4 = alloca ptr, align 8
  %5 = alloca ptr, align 8
  %6 = alloca i32, align 4
  store ptr %0, ptr %2, align 8, !tbaa !4
  call void @llvm.lifetime.start.p0(i64 8, ptr %3) #9
  %7 = load ptr, ptr %2, align 8, !tbaa !4
  %8 = call ptr @lj_lib_checkfunc(ptr noundef %7, i32 noundef 1)
  store ptr %8, ptr %3, align 8, !tbaa !38
  call void @llvm.lifetime.start.p0(i64 8, ptr %4) #9
  %9 = load ptr, ptr %2, align 8, !tbaa !4
  %10 = call ptr @lj_lib_optstr(ptr noundef %9, i32 noundef 2)
  store ptr %10, ptr %4, align 8, !tbaa !39
  %11 = load ptr, ptr %2, align 8, !tbaa !4
  %12 = call ptr @luaL_findtable(ptr noundef %11, i32 noundef -10000, ptr noundef @.str.11, i32 noundef 4)
  %13 = load ptr, ptr %4, align 8, !tbaa !39
  %14 = icmp ne ptr %13, null
  br i1 %14, label %15, label %49

15:                                               ; preds = %1
  call void @llvm.lifetime.start.p0(i64 8, ptr %5) #9
  %16 = load ptr, ptr %4, align 8, !tbaa !39
  %17 = getelementptr inbounds %struct.GCstr, ptr %16, i64 1
  store ptr %17, ptr %5, align 8, !tbaa !41
  call void @llvm.lifetime.start.p0(i64 4, ptr %6) #9
  %18 = load ptr, ptr %4, align 8, !tbaa !39
  %19 = getelementptr inbounds nuw %struct.GCstr, ptr %18, i32 0, i32 7
  %20 = load i32, ptr %19, align 4, !tbaa !42
  store i32 %20, ptr %6, align 4, !tbaa !35
  br label %21

21:                                               ; preds = %25, %15
  %22 = load ptr, ptr %5, align 8, !tbaa !41
  %23 = load i8, ptr %22, align 1, !tbaa !37
  %24 = icmp ne i8 %23, 0
  br i1 %24, label %25, label %38

25:                                               ; preds = %21
  %26 = load i32, ptr %6, align 4, !tbaa !35
  %27 = load i32, ptr %6, align 4, !tbaa !35
  %28 = shl i32 %27, 6
  %29 = load i32, ptr %6, align 4, !tbaa !35
  %30 = lshr i32 %29, 26
  %31 = or i32 %28, %30
  %32 = load ptr, ptr %5, align 8, !tbaa !41
  %33 = getelementptr inbounds nuw i8, ptr %32, i32 1
  store ptr %33, ptr %5, align 8, !tbaa !41
  %34 = load i8, ptr %32, align 1, !tbaa !37
  %35 = zext i8 %34 to i32
  %36 = add i32 %31, %35
  %37 = xor i32 %26, %36
  store i32 %37, ptr %6, align 4, !tbaa !35
  br label %21, !llvm.loop !44

38:                                               ; preds = %21
  %39 = load ptr, ptr %2, align 8, !tbaa !4
  call void @lua_pushvalue(ptr noundef %39, i32 noundef 1)
  %40 = load ptr, ptr %2, align 8, !tbaa !4
  %41 = load i32, ptr %6, align 4, !tbaa !35
  %42 = shl i32 %41, 3
  call void @lua_rawseti(ptr noundef %40, i32 noundef -2, i32 noundef %42)
  %43 = load ptr, ptr %2, align 8, !tbaa !4
  %44 = getelementptr inbounds nuw %struct.lua_State, ptr %43, i32 0, i32 5
  %45 = getelementptr inbounds nuw %struct.MRef, ptr %44, i32 0, i32 0
  %46 = load i64, ptr %45, align 8, !tbaa !17
  %47 = inttoptr i64 %46 to ptr
  %48 = getelementptr inbounds nuw %struct.global_State, ptr %47, i32 0, i32 7
  store i8 -1, ptr %48, align 1, !tbaa !46
  call void @llvm.lifetime.end.p0(i64 4, ptr %6) #9
  call void @llvm.lifetime.end.p0(i64 8, ptr %5) #9
  br label %97

49:                                               ; preds = %1
  %50 = load ptr, ptr %2, align 8, !tbaa !4
  %51 = getelementptr inbounds nuw %struct.lua_State, ptr %50, i32 0, i32 8
  %52 = load ptr, ptr %51, align 8, !tbaa !16
  %53 = getelementptr inbounds nuw %union.TValue, ptr %52, i32 1
  store ptr %53, ptr %51, align 8, !tbaa !16
  store i64 -1, ptr %52, align 8, !tbaa !37
  br label %54

54:                                               ; preds = %95, %49
  %55 = load ptr, ptr %2, align 8, !tbaa !4
  %56 = call i32 @lua_next(ptr noundef %55, i32 noundef -2)
  %57 = icmp ne i32 %56, 0
  br i1 %57, label %58, label %96

58:                                               ; preds = %54
  %59 = load ptr, ptr %2, align 8, !tbaa !4
  %60 = getelementptr inbounds nuw %struct.lua_State, ptr %59, i32 0, i32 8
  %61 = load ptr, ptr %60, align 8, !tbaa !16
  %62 = getelementptr inbounds %union.TValue, ptr %61, i32 -1
  store ptr %62, ptr %60, align 8, !tbaa !16
  %63 = load ptr, ptr %2, align 8, !tbaa !4
  %64 = getelementptr inbounds nuw %struct.lua_State, ptr %63, i32 0, i32 8
  %65 = load ptr, ptr %64, align 8, !tbaa !16
  %66 = load i64, ptr %65, align 8, !tbaa !37
  %67 = ashr i64 %66, 47
  %68 = trunc i64 %67 to i32
  %69 = icmp eq i32 %68, -9
  br i1 %69, label %70, label %95

70:                                               ; preds = %58
  %71 = load ptr, ptr %2, align 8, !tbaa !4
  %72 = getelementptr inbounds nuw %struct.lua_State, ptr %71, i32 0, i32 8
  %73 = load ptr, ptr %72, align 8, !tbaa !16
  %74 = getelementptr inbounds nuw %struct.GCRef, ptr %73, i32 0, i32 0
  %75 = load i64, ptr %74, align 8, !tbaa !37
  %76 = and i64 %75, 140737488355327
  %77 = inttoptr i64 %76 to ptr
  %78 = load ptr, ptr %3, align 8, !tbaa !38
  %79 = icmp eq ptr %77, %78
  br i1 %79, label %80, label %95

80:                                               ; preds = %70
  %81 = load ptr, ptr %2, align 8, !tbaa !4
  %82 = load ptr, ptr %2, align 8, !tbaa !4
  %83 = getelementptr inbounds nuw %struct.lua_State, ptr %82, i32 0, i32 8
  %84 = load ptr, ptr %83, align 8, !tbaa !16
  %85 = getelementptr inbounds %union.TValue, ptr %84, i64 -2
  %86 = getelementptr inbounds nuw %struct.GCRef, ptr %85, i32 0, i32 0
  %87 = load i64, ptr %86, align 8, !tbaa !37
  %88 = and i64 %87, 140737488355327
  %89 = inttoptr i64 %88 to ptr
  %90 = load ptr, ptr %2, align 8, !tbaa !4
  %91 = getelementptr inbounds nuw %struct.lua_State, ptr %90, i32 0, i32 8
  %92 = load ptr, ptr %91, align 8, !tbaa !16
  %93 = getelementptr inbounds %union.TValue, ptr %92, i64 -1
  %94 = call ptr @lj_tab_set(ptr noundef %81, ptr noundef %89, ptr noundef %93)
  store i64 -1, ptr %94, align 8, !tbaa !37
  br label %95

95:                                               ; preds = %80, %70, %58
  br label %54, !llvm.loop !54

96:                                               ; preds = %54
  br label %97

97:                                               ; preds = %96, %38
  call void @llvm.lifetime.end.p0(i64 8, ptr %4) #9
  call void @llvm.lifetime.end.p0(i64 8, ptr %3) #9
  ret i32 0
}