; Function Attrs: nounwind uwtable
define internal noundef i32 @lj_cf_jit_attach(ptr noundef %0) #0 {
  %2 = tail call ptr @lj_lib_checkfunc(ptr noundef %0, i32 noundef 1) #8
  %3 = tail call ptr @lj_lib_optstr(ptr noundef %0, i32 noundef 2) #8
  %4 = tail call ptr @luaL_findtable(ptr noundef %0, i32 noundef -10000, ptr noundef nonnull @.str.11, i32 noundef 4) #8
  %.not = icmp eq ptr %3, null
  br i1 %.not, label %22, label %5

5:                                                ; preds = %1
  %6 = getelementptr inbounds nuw i8, ptr %3, i64 24
  %7 = getelementptr inbounds nuw i8, ptr %3, i64 20
  %8 = load i32, ptr %7, align 4, !tbaa !37
  %9 = load i8, ptr %6, align 1, !tbaa !34
  %.not2730 = icmp eq i8 %9, 0
  br i1 %.not2730, label %._crit_edge, label %.lr.ph

.lr.ph:                                           ; preds = %5, %.lr.ph
  %10 = phi i8 [ %16, %.lr.ph ], [ %9, %5 ]
  %.032 = phi i32 [ %15, %.lr.ph ], [ %8, %5 ]
  %.02331 = phi ptr [ %12, %.lr.ph ], [ %6, %5 ]
  %11 = tail call i32 @llvm.fshl.i32(i32 %.032, i32 %.032, i32 6)
  %12 = getelementptr inbounds nuw i8, ptr %.02331, i64 1
  %13 = zext i8 %10 to i32
  %14 = add i32 %11, %13
  %15 = xor i32 %14, %.032
  %16 = load i8, ptr %12, align 1, !tbaa !34
  %.not27 = icmp eq i8 %16, 0
  br i1 %.not27, label %._crit_edge, label %.lr.ph, !llvm.loop !39

._crit_edge:                                      ; preds = %.lr.ph, %5
  %.0.lcssa = phi i32 [ %8, %5 ], [ %15, %.lr.ph ]
  tail call void @lua_pushvalue(ptr noundef %0, i32 noundef 1) #8
  %17 = shl i32 %.0.lcssa, 3
  tail call void @lua_rawseti(ptr noundef %0, i32 noundef -2, i32 noundef %17) #8
  %18 = getelementptr inbounds nuw i8, ptr %0, i64 16
  %19 = load i64, ptr %18, align 8, !tbaa !4
  %20 = inttoptr i64 %19 to ptr
  %21 = getelementptr inbounds nuw i8, ptr %20, i64 147
  store i8 -1, ptr %21, align 1, !tbaa !40
  br label %.loopexit

22:                                               ; preds = %1
  %23 = getelementptr inbounds nuw i8, ptr %0, i64 40
  %24 = load ptr, ptr %23, align 8, !tbaa !32
  %25 = getelementptr inbounds nuw i8, ptr %24, i64 8
  store ptr %25, ptr %23, align 8, !tbaa !32
  store i64 -1, ptr %24, align 8, !tbaa !34
  %26 = tail call i32 @lua_next(ptr noundef nonnull %0, i32 noundef -2) #8
  %.not2633 = icmp eq i32 %26, 0
  br i1 %.not2633, label %.loopexit, label %.lr.ph35

.lr.ph35:                                         ; preds = %22, %41
  %27 = load ptr, ptr %23, align 8, !tbaa !32
  %28 = getelementptr inbounds i8, ptr %27, i64 -8
  store ptr %28, ptr %23, align 8, !tbaa !32
  %29 = load i64, ptr %28, align 8, !tbaa !34
  %.mask = and i64 %29, -140737488355328
  %30 = icmp eq i64 %.mask, -1266637395197952
  %31 = and i64 %29, 140737488355327
  %32 = inttoptr i64 %31 to ptr
  %33 = icmp eq ptr %2, %32
  %or.cond = select i1 %30, i1 %33, i1 false
  br i1 %or.cond, label %34, label %41

34:                                               ; preds = %.lr.ph35
  %35 = getelementptr inbounds i8, ptr %27, i64 -24
  %36 = load i64, ptr %35, align 8, !tbaa !34
  %37 = and i64 %36, 140737488355327
  %38 = inttoptr i64 %37 to ptr
  %39 = getelementptr inbounds i8, ptr %27, i64 -16
  %40 = tail call ptr @lj_tab_set(ptr noundef nonnull %0, ptr noundef %38, ptr noundef nonnull %39) #8
  store i64 -1, ptr %40, align 8, !tbaa !34
  br label %41

41:                                               ; preds = %34, %.lr.ph35
  %42 = tail call i32 @lua_next(ptr noundef nonnull %0, i32 noundef -2) #8
  %.not26 = icmp eq i32 %42, 0
  br i1 %.not26, label %.loopexit, label %.lr.ph35, !llvm.loop !48

.loopexit:                                        ; preds = %41, %22, %._crit_edge
  ret i32 0
}